target datalayout = "e-m:e-p270:32:32-p271:32:32-p272:64:64-i64:64-i128:128-f80:128-n8:16:32:64-S128"
target triple = "x86_64-pc-linux-gnu"

%"class.icu_77::number::IncrementPrecision" = type { %"class.icu_77::number::Precision.base", [4 x i8] }
%"class.icu_77::number::Precision.base" = type <{ i32, [4 x i8], %"union.icu_77::number::Precision::PrecisionUnion", i32 }>
%"union.icu_77::number::Precision::PrecisionUnion" = type { %"struct.icu_77::number::Precision::PrecisionUnion::IncrementSettings" }
%"struct.icu_77::number::Precision::PrecisionUnion::IncrementSettings" = type { i64, i16, i16 }
%"class.icu_77::number::Precision" = type <{ i32, [4 x i8], %"union.icu_77::number::Precision::PrecisionUnion", i32, [4 x i8] }>

; Function Attrs: mustprogress nounwind uwtable
define linkonce_odr void @_ZN6icu_776number9PrecisionC2E10UErrorCode(ptr noundef nonnull align 8 dereferenceable(28) %0, i32 noundef %1) unnamed_addr #0 comdat align 2 {
  %3 = alloca ptr, align 8
  %4 = alloca i32, align 4
  store ptr %0, ptr %3, align 8, !tbaa !25
  store i32 %1, ptr %4, align 4, !tbaa !15
  %5 = load ptr, ptr %3, align 8
  %6 = getelementptr inbounds nuw %"class.icu_77::number::Precision", ptr %5, i32 0, i32 0
  store i32 9, ptr %6, align 8, !tbaa !65
  %7 = getelementptr inbounds nuw %"class.icu_77::number::Precision", ptr %5, i32 0, i32 3
  store i32 0, ptr %7, align 8, !tbaa !69
  %8 = load i32, ptr %4, align 4, !tbaa !15
  %9 = getelementptr inbounds nuw %"class.icu_77::number::Precision", ptr %5, i32 0, i32 2
  store i32 %8, ptr %9, align 8, !tbaa !33
  ret void
}

; Function Attrs: mustprogress uwtable
define void @_ZNK6icu_776number18IncrementPrecision15withMinFractionEi(ptr dead_on_unwind noalias writable sret(%"class.icu_77::number::Precision") align 8 %0, ptr noundef nonnull align 8 dereferenceable(28) %1, i32 noundef %2) #1 align 2 {
  %4 = alloca ptr, align 8
  %5 = alloca i32, align 4
  %6 = alloca %"class.icu_77::number::IncrementPrecision", align 8
  store ptr %1, ptr %4, align 8, !tbaa !83
  store i32 %2, ptr %5, align 4, !tbaa !14
  %7 = load ptr, ptr %4, align 8
  %8 = getelementptr inbounds nuw %"class.icu_77::number::Precision", ptr %7, i32 0, i32 0
  %9 = load i32, ptr %8, align 8, !tbaa !65
  %10 = icmp eq i32 %9, 9
  br i1 %10, label %11, label %12

11:                                               ; preds = %3
  call void @llvm.memcpy.p0.p0.i64(ptr align 8 %0, ptr align 8 %7, i64 32, i1 false)
  br label %24

12:                                               ; preds = %3
  %13 = load i32, ptr %5, align 4, !tbaa !14
  %14 = icmp sge i32 %13, 0
  br i1 %14, label %15, label %23

15:                                               ; preds = %12
  %16 = load i32, ptr %5, align 4, !tbaa !14
  %17 = icmp sle i32 %16, 999
  br i1 %17, label %18, label %23

18:                                               ; preds = %15
  call void @llvm.lifetime.start.p0(i64 32, ptr %6) #13
  call void @llvm.memcpy.p0.p0.i64(ptr align 8 %6, ptr align 8 %7, i64 32, i1 false)
  %19 = load i32, ptr %5, align 4, !tbaa !14
  %20 = trunc i32 %19 to i16
  %21 = getelementptr inbounds nuw %"class.icu_77::number::Precision", ptr %6, i32 0, i32 2
  %22 = getelementptr inbounds nuw %"struct.icu_77::number::Precision::PrecisionUnion::IncrementSettings", ptr %21, i32 0, i32 2
  store i16 %20, ptr %22, align 2, !tbaa !33
  call void @llvm.memcpy.p0.p0.i64(ptr align 8 %0, ptr align 8 %6, i64 32, i1 false)
  call void @llvm.lifetime.end.p0(i64 32, ptr %6) #13
  br label %24

23:                                               ; preds = %15, %12
  call void @_ZN6icu_776number9PrecisionC2E10UErrorCode(ptr noundef nonnull align 8 dereferenceable(28) %0, i32 noundef 65810)
  br label %24

24:                                               ; preds = %23, %18, %11
  ret void
}