; Function Attrs: mustprogress nofree norecurse nosync nounwind willreturn memory(argmem: readwrite) uwtable
define void @_ZNK6icu_776number18IncrementPrecision15withMinFractionEi(ptr dead_on_unwind noalias writable writeonly sret(%"class.icu_77::number::Precision") align 8 captures(none) initializes((0, 4), (8, 12), (24, 28)) %0, ptr noundef nonnull readonly align 8 captures(none) dereferenceable(28) %1, i32 noundef %2) local_unnamed_addr #15 align 2 {
  %4 = load i32, ptr %1, align 8, !tbaa !27
  %5 = icmp eq i32 %4, 9
  br i1 %5, label %6, label %7

6:                                                ; preds = %3
  tail call void @llvm.memcpy.p0.p0.i64(ptr noundef nonnull align 8 dereferenceable(32) %0, ptr noundef nonnull align 8 dereferenceable(32) %1, i64 32, i1 false)
  br label %13

7:                                                ; preds = %3
  %or.cond = icmp ult i32 %2, 1000
  br i1 %or.cond, label %8, label %10

8:                                                ; preds = %7
  tail call void @llvm.memcpy.p0.p0.i64(ptr noundef nonnull align 8 dereferenceable(18) %0, ptr noundef nonnull align 8 dereferenceable(18) %1, i64 18, i1 false)
  %.sroa.5.0..sroa_idx = getelementptr inbounds nuw i8, ptr %1, i64 20
  %.sroa.5.0..sroa_idx4 = getelementptr inbounds nuw i8, ptr %0, i64 20
  tail call void @llvm.memcpy.p0.p0.i64(ptr noundef nonnull align 4 dereferenceable(12) %.sroa.5.0..sroa_idx4, ptr noundef nonnull align 4 dereferenceable(12) %.sroa.5.0..sroa_idx, i64 12, i1 false)
  %9 = trunc nuw nsw i32 %2 to i16
  %.sroa.4.0..sroa_idx2 = getelementptr inbounds nuw i8, ptr %0, i64 18
  store i16 %9, ptr %.sroa.4.0..sroa_idx2, align 2
  br label %13

10:                                               ; preds = %7
  store i32 9, ptr %0, align 8, !tbaa !27
  %11 = getelementptr inbounds nuw i8, ptr %0, i64 24
  store i32 0, ptr %11, align 8, !tbaa !31
  %12 = getelementptr inbounds nuw i8, ptr %0, i64 8
  store i32 65810, ptr %12, align 8, !tbaa !17
  br label %13

13:                                               ; preds = %10, %8, %6
  ret void
}